target datalayout = "e-m:e-p270:32:32-p271:32:32-p272:64:64-i64:64-i128:128-f80:128-n8:16:32:64-S128"
target triple = "x86_64-pc-linux-gnu"

%struct.RelationData = type { %struct.RelFileLocator, ptr, i32, i32, i8, i8, i8, i8, i8, i32, i32, i32, i32, ptr, ptr, i32, %struct.LockInfoData, ptr, ptr, ptr, ptr, ptr, i8, ptr, ptr, ptr, ptr, ptr, ptr, i32, ptr, i8, ptr, ptr, i32, i8, i32, ptr, i8, ptr, ptr, ptr, ptr, ptr, ptr, ptr, i32, ptr, ptr, ptr, ptr, ptr, ptr, ptr, ptr, ptr, ptr, ptr, ptr, ptr, ptr, ptr, ptr, ptr, ptr, ptr, i32, i8, ptr }
%struct.RelFileLocator = type { i32, i32, i32 }
%struct.LockInfoData = type { %struct.LockRelId }
%struct.LockRelId = type { i32, i32 }
%struct.ScanKeyData = type { i32, i16, i16, i32, i32, %struct.FmgrInfo, i64 }
%struct.FmgrInfo = type { ptr, i32, i16, i8, i8, i8, ptr, ptr, ptr }
%struct.HeapTupleData = type { i32, %struct.ItemPointerData, i32, ptr }
%struct.ItemPointerData = type { %struct.BlockIdData, i16 }
%struct.BlockIdData = type { i16, i16 }

; Function Attrs: inlinehint nounwind uwtable
define internal i64 @PointerGetDatum(ptr noundef %0) #6 {
  %2 = alloca ptr, align 8
  store ptr %0, ptr %2, align 8
  %3 = load ptr, ptr %2, align 8
  %4 = ptrtoint ptr %3 to i64
  ret i64 %4
}

; Function Attrs: inlinehint nounwind uwtable
define internal i64 @ObjectIdGetDatum(i32 noundef %0) #6 {
  %2 = alloca i32, align 4
  store i32 %0, ptr %2, align 4
  %3 = load i32, ptr %2, align 4
  %4 = zext i32 %3 to i64
  ret i64 %4
}

; Function Attrs: nounwind uwtable
define dso_local void @CreateSharedComments(i32 noundef %0, i32 noundef %1, ptr noundef %2) #0 {
  %4 = alloca i32, align 4
  %5 = alloca i32, align 4
  %6 = alloca ptr, align 8
  %7 = alloca ptr, align 8
  %8 = alloca [2 x %struct.ScanKeyData], align 16
  %9 = alloca ptr, align 8
  %10 = alloca ptr, align 8
  %11 = alloca ptr, align 8
  %12 = alloca [3 x i64], align 16
  %13 = alloca [3 x i8], align 1
  %14 = alloca [3 x i8], align 1
  %15 = alloca i32, align 4
  store i32 %0, ptr %4, align 4
  store i32 %1, ptr %5, align 4
  store ptr %2, ptr %6, align 8
  call void @llvm.lifetime.start.p0(i64 8, ptr %7) #7
  call void @llvm.lifetime.start.p0(i64 144, ptr %8) #7
  call void @llvm.lifetime.start.p0(i64 8, ptr %9) #7
  call void @llvm.lifetime.start.p0(i64 8, ptr %10) #7
  call void @llvm.lifetime.start.p0(i64 8, ptr %11) #7
  store ptr null, ptr %11, align 8
  call void @llvm.lifetime.start.p0(i64 24, ptr %12) #7
  call void @llvm.lifetime.start.p0(i64 3, ptr %13) #7
  call void @llvm.lifetime.start.p0(i64 3, ptr %14) #7
  call void @llvm.lifetime.start.p0(i64 4, ptr %15) #7
  %16 = load ptr, ptr %6, align 8
  %17 = icmp ne ptr %16, null
  br i1 %17, label %18, label %23

18:                                               ; preds = %3
  %19 = load ptr, ptr %6, align 8
  %20 = call i64 @strlen(ptr noundef %19) #9
  %21 = icmp eq i64 %20, 0
  br i1 %21, label %22, label %23

22:                                               ; preds = %18
  store ptr null, ptr %6, align 8
  br label %23

23:                                               ; preds = %22, %18, %3
  %24 = load ptr, ptr %6, align 8
  %25 = icmp ne ptr %24, null
  br i1 %25, label %26, label %51

26:                                               ; preds = %23
  store i32 0, ptr %15, align 4
  br label %27

27:                                               ; preds = %37, %26
  %28 = load i32, ptr %15, align 4
  %29 = icmp slt i32 %28, 3
  br i1 %29, label %30, label %40

30:                                               ; preds = %27
  %31 = load i32, ptr %15, align 4
  %32 = sext i32 %31 to i64
  %33 = getelementptr inbounds [3 x i8], ptr %13, i64 0, i64 %32
  store i8 0, ptr %33, align 1
  %34 = load i32, ptr %15, align 4
  %35 = sext i32 %34 to i64
  %36 = getelementptr inbounds [3 x i8], ptr %14, i64 0, i64 %35
  store i8 1, ptr %36, align 1
  br label %37

37:                                               ; preds = %30
  %38 = load i32, ptr %15, align 4
  %39 = add i32 %38, 1
  store i32 %39, ptr %15, align 4
  br label %27, !llvm.loop !4

40:                                               ; preds = %27
  %41 = load i32, ptr %4, align 4
  %42 = call i64 @ObjectIdGetDatum(i32 noundef %41)
  %43 = getelementptr inbounds [3 x i64], ptr %12, i64 0, i64 0
  store i64 %42, ptr %43, align 16
  %44 = load i32, ptr %5, align 4
  %45 = call i64 @ObjectIdGetDatum(i32 noundef %44)
  %46 = getelementptr inbounds [3 x i64], ptr %12, i64 0, i64 1
  store i64 %45, ptr %46, align 8
  %47 = load ptr, ptr %6, align 8
  %48 = call ptr @cstring_to_text(ptr noundef %47)
  %49 = call i64 @PointerGetDatum(ptr noundef %48)
  %50 = getelementptr inbounds [3 x i64], ptr %12, i64 0, i64 2
  store i64 %49, ptr %50, align 16
  br label %51

51:                                               ; preds = %40, %23
  %52 = getelementptr inbounds [2 x %struct.ScanKeyData], ptr %8, i64 0, i64 0
  %53 = load i32, ptr %4, align 4
  %54 = call i64 @ObjectIdGetDatum(i32 noundef %53)
  call void @ScanKeyInit(ptr noundef %52, i16 noundef signext 1, i16 noundef zeroext 3, i32 noundef 184, i64 noundef %54)
  %55 = getelementptr inbounds [2 x %struct.ScanKeyData], ptr %8, i64 0, i64 1
  %56 = load i32, ptr %5, align 4
  %57 = call i64 @ObjectIdGetDatum(i32 noundef %56)
  call void @ScanKeyInit(ptr noundef %55, i16 noundef signext 2, i16 noundef zeroext 3, i32 noundef 184, i64 noundef %57)
  %58 = call ptr @table_open(i32 noundef 2396, i32 noundef 3)
  store ptr %58, ptr %7, align 8
  %59 = load ptr, ptr %7, align 8
  %60 = getelementptr inbounds [2 x %struct.ScanKeyData], ptr %8, i64 0, i64 0
  %61 = call ptr @systable_beginscan(ptr noundef %59, i32 noundef 2397, i1 noundef zeroext true, ptr noundef null, i32 noundef 2, ptr noundef %60)
  store ptr %61, ptr %9, align 8
  br label %62

62:                                               ; preds = %51
  %63 = load ptr, ptr %9, align 8
  %64 = call ptr @systable_getnext(ptr noundef %63)
  store ptr %64, ptr %10, align 8
  %65 = icmp ne ptr %64, null
  br i1 %65, label %66, label %87

66:                                               ; preds = %62
  %67 = load ptr, ptr %6, align 8
  %68 = icmp eq ptr %67, null
  br i1 %68, label %69, label %73

69:                                               ; preds = %66
  %70 = load ptr, ptr %7, align 8
  %71 = load ptr, ptr %10, align 8
  %72 = getelementptr inbounds nuw %struct.HeapTupleData, ptr %71, i32 0, i32 1
  call void @CatalogTupleDelete(ptr noundef %70, ptr noundef %72)
  br label %86

73:                                               ; preds = %66
  %74 = load ptr, ptr %10, align 8
  %75 = load ptr, ptr %7, align 8
  %76 = getelementptr inbounds nuw %struct.RelationData, ptr %75, i32 0, i32 14
  %77 = load ptr, ptr %76, align 8
  %78 = getelementptr inbounds [3 x i64], ptr %12, i64 0, i64 0
  %79 = getelementptr inbounds [3 x i8], ptr %13, i64 0, i64 0
  %80 = getelementptr inbounds [3 x i8], ptr %14, i64 0, i64 0
  %81 = call ptr @heap_modify_tuple(ptr noundef %74, ptr noundef %77, ptr noundef %78, ptr noundef %79, ptr noundef %80)
  store ptr %81, ptr %11, align 8
  %82 = load ptr, ptr %7, align 8
  %83 = load ptr, ptr %10, align 8
  %84 = getelementptr inbounds nuw %struct.HeapTupleData, ptr %83, i32 0, i32 1
  %85 = load ptr, ptr %11, align 8
  call void @CatalogTupleUpdate(ptr noundef %82, ptr noundef %84, ptr noundef %85)
  br label %86

86:                                               ; preds = %73, %69
  br label %87

87:                                               ; preds = %86, %62
  %88 = load ptr, ptr %9, align 8
  call void @systable_endscan(ptr noundef %88)
  %89 = load ptr, ptr %11, align 8
  %90 = icmp eq ptr %89, null
  br i1 %90, label %91, label %103

91:                                               ; preds = %87
  %92 = load ptr, ptr %6, align 8
  %93 = icmp ne ptr %92, null
  br i1 %93, label %94, label %103

94:                                               ; preds = %91
  %95 = load ptr, ptr %7, align 8
  %96 = getelementptr inbounds nuw %struct.RelationData, ptr %95, i32 0, i32 14
  %97 = load ptr, ptr %96, align 8
  %98 = getelementptr inbounds [3 x i64], ptr %12, i64 0, i64 0
  %99 = getelementptr inbounds [3 x i8], ptr %13, i64 0, i64 0
  %100 = call ptr @heap_form_tuple(ptr noundef %97, ptr noundef %98, ptr noundef %99)
  store ptr %100, ptr %11, align 8
  %101 = load ptr, ptr %7, align 8
  %102 = load ptr, ptr %11, align 8
  call void @CatalogTupleInsert(ptr noundef %101, ptr noundef %102)
  br label %103

103:                                              ; preds = %94, %91, %87
  %104 = load ptr, ptr %11, align 8
  %105 = icmp ne ptr %104, null
  br i1 %105, label %106, label %108

106:                                              ; preds = %103
  %107 = load ptr, ptr %11, align 8
  call void @heap_freetuple(ptr noundef %107)
  br label %108

108:                                              ; preds = %106, %103
  %109 = load ptr, ptr %7, align 8
  call void @table_close(ptr noundef %109, i32 noundef 0)
  call void @llvm.lifetime.end.p0(i64 4, ptr %15) #7
  call void @llvm.lifetime.end.p0(i64 3, ptr %14) #7
  call void @llvm.lifetime.end.p0(i64 3, ptr %13) #7
  call void @llvm.lifetime.end.p0(i64 24, ptr %12) #7
  call void @llvm.lifetime.end.p0(i64 8, ptr %11) #7
  call void @llvm.lifetime.end.p0(i64 8, ptr %10) #7
  call void @llvm.lifetime.end.p0(i64 8, ptr %9) #7
  call void @llvm.lifetime.end.p0(i64 144, ptr %8) #7
  call void @llvm.lifetime.end.p0(i64 8, ptr %7) #7
  ret void
}