; Function Attrs: nounwind uwtable
define dso_local void @CreateSharedComments(i32 noundef %0, i32 noundef %1, ptr noundef %2) local_unnamed_addr #0 {
  %4 = alloca [2 x %struct.ScanKeyData], align 16
  %5 = alloca [3 x i64], align 16
  %6 = alloca [3 x i8], align 1
  %7 = alloca [3 x i8], align 1
  call void @llvm.lifetime.start.p0(i64 144, ptr nonnull %4) #6
  call void @llvm.lifetime.start.p0(i64 24, ptr nonnull %5) #6
  call void @llvm.lifetime.start.p0(i64 3, ptr nonnull %6) #6
  call void @llvm.lifetime.start.p0(i64 3, ptr nonnull %7) #6
  %.not = icmp eq ptr %2, null
  br i1 %.not, label %.thread, label %8

8:                                                ; preds = %3
  %char0 = load i8, ptr %2, align 1
  %9 = icmp eq i8 %char0, 0
  br i1 %9, label %.thread, label %.preheader.preheader

.preheader.preheader:                             ; preds = %8
  call void @llvm.memset.p0.i64(ptr noundef nonnull align 1 dereferenceable(3) %6, i8 0, i64 3, i1 false)
  call void @llvm.memset.p0.i64(ptr noundef nonnull align 1 dereferenceable(3) %7, i8 1, i64 3, i1 false)
  %10 = zext i32 %0 to i64
  store i64 %10, ptr %5, align 16
  %11 = zext i32 %1 to i64
  %12 = getelementptr inbounds nuw i8, ptr %5, i64 8
  store i64 %11, ptr %12, align 8
  %13 = tail call ptr @cstring_to_text(ptr noundef nonnull %2) #6
  %14 = ptrtoint ptr %13 to i64
  %15 = getelementptr inbounds nuw i8, ptr %5, i64 16
  store i64 %14, ptr %15, align 16
  br label %.thread

.thread:                                          ; preds = %8, %3, %.preheader.preheader
  %16 = phi i1 [ true, %.preheader.preheader ], [ false, %3 ], [ false, %8 ]
  %.03239 = phi i1 [ false, %.preheader.preheader ], [ true, %3 ], [ true, %8 ]
  %17 = zext i32 %0 to i64
  call void @ScanKeyInit(ptr noundef nonnull %4, i16 noundef signext 1, i16 noundef zeroext 3, i32 noundef 184, i64 noundef %17) #6
  %18 = getelementptr inbounds nuw i8, ptr %4, i64 72
  %19 = zext i32 %1 to i64
  call void @ScanKeyInit(ptr noundef nonnull %18, i16 noundef signext 2, i16 noundef zeroext 3, i32 noundef 184, i64 noundef %19) #6
  %20 = call ptr @table_open(i32 noundef 2396, i32 noundef 3) #6
  %21 = call ptr @systable_beginscan(ptr noundef %20, i32 noundef 2397, i1 noundef zeroext true, ptr noundef null, i32 noundef 2, ptr noundef nonnull %4) #6
  %22 = call ptr @systable_getnext(ptr noundef %21) #6
  %.not36 = icmp eq ptr %22, null
  br i1 %.not36, label %31, label %23

23:                                               ; preds = %.thread
  br i1 %.03239, label %24, label %26

24:                                               ; preds = %23
  %25 = getelementptr inbounds nuw i8, ptr %22, i64 4
  call void @CatalogTupleDelete(ptr noundef %20, ptr noundef nonnull %25) #6
  br label %31

26:                                               ; preds = %23
  %27 = getelementptr inbounds nuw i8, ptr %20, i64 64
  %28 = load ptr, ptr %27, align 8
  %29 = call ptr @heap_modify_tuple(ptr noundef nonnull %22, ptr noundef %28, ptr noundef nonnull %5, ptr noundef nonnull %6, ptr noundef nonnull %7) #6
  %30 = getelementptr inbounds nuw i8, ptr %22, i64 4
  call void @CatalogTupleUpdate(ptr noundef %20, ptr noundef nonnull %30, ptr noundef %29) #6
  br label %31

31:                                               ; preds = %24, %26, %.thread
  %.031 = phi ptr [ null, %24 ], [ %29, %26 ], [ null, %.thread ]
  call void @systable_endscan(ptr noundef %21) #6
  %32 = icmp eq ptr %.031, null
  %or.cond = and i1 %16, %32
  br i1 %or.cond, label %33, label %37

33:                                               ; preds = %31
  %34 = getelementptr inbounds nuw i8, ptr %20, i64 64
  %35 = load ptr, ptr %34, align 8
  %36 = call ptr @heap_form_tuple(ptr noundef %35, ptr noundef nonnull %5, ptr noundef nonnull %6) #6
  call void @CatalogTupleInsert(ptr noundef %20, ptr noundef %36) #6
  br label %37

37:                                               ; preds = %33, %31
  %.1 = phi ptr [ %36, %33 ], [ %.031, %31 ]
  %.not37 = icmp eq ptr %.1, null
  br i1 %.not37, label %39, label %38

38:                                               ; preds = %37
  call void @heap_freetuple(ptr noundef nonnull %.1) #6
  br label %39

39:                                               ; preds = %38, %37
  call void @table_close(ptr noundef %20, i32 noundef 0) #6
  call void @llvm.lifetime.end.p0(i64 3, ptr nonnull %7) #6
  call void @llvm.lifetime.end.p0(i64 3, ptr nonnull %6) #6
  call void @llvm.lifetime.end.p0(i64 24, ptr nonnull %5) #6
  call void @llvm.lifetime.end.p0(i64 144, ptr nonnull %4) #6
  ret void
}